target datalayout = "e-m:e-p270:32:32-p271:32:32-p272:64:64-i64:64-i128:128-f80:128-n8:16:32:64-S128"
target triple = "x86_64-pc-linux-gnu"

%"class.gmx::SelectionOptionManager::Impl" = type { ptr, %"class.std::vector", %"class.std::vector.0" }
%"class.std::vector" = type { %"struct.std::_Vector_base" }
%"struct.std::_Vector_base" = type { %"struct.std::_Vector_base<gmx::SelectionOptionStorage *, std::allocator<gmx::SelectionOptionStorage *>>::_Vector_impl" }
%"struct.std::_Vector_base<gmx::SelectionOptionStorage *, std::allocator<gmx::SelectionOptionStorage *>>::_Vector_impl" = type { %"struct.std::_Vector_base<gmx::SelectionOptionStorage *, std::allocator<gmx::SelectionOptionStorage *>>::_Vector_impl_data" }
%"struct.std::_Vector_base<gmx::SelectionOptionStorage *, std::allocator<gmx::SelectionOptionStorage *>>::_Vector_impl_data" = type { ptr, ptr, ptr }
%"class.std::vector.0" = type { %"struct.std::_Vector_base.1" }
%"struct.std::_Vector_base.1" = type { %"struct.std::_Vector_base<gmx::SelectionOptionManager::Impl::SelectionRequest, std::allocator<gmx::SelectionOptionManager::Impl::SelectionRequest>>::_Vector_impl" }
%"struct.std::_Vector_base<gmx::SelectionOptionManager::Impl::SelectionRequest, std::allocator<gmx::SelectionOptionManager::Impl::SelectionRequest>>::_Vector_impl" = type { %"struct.std::_Vector_base<gmx::SelectionOptionManager::Impl::SelectionRequest, std::allocator<gmx::SelectionOptionManager::Impl::SelectionRequest>>::_Vector_impl_data" }
%"struct.std::_Vector_base<gmx::SelectionOptionManager::Impl::SelectionRequest, std::allocator<gmx::SelectionOptionManager::Impl::SelectionRequest>>::_Vector_impl_data" = type { ptr, ptr, ptr }
%"class.std::__cxx11::basic_string" = type { %"struct.std::__cxx11::basic_string<char>::_Alloc_hider", i64, %union.anon }
%"struct.std::__cxx11::basic_string<char>::_Alloc_hider" = type { ptr }
%union.anon = type { i64, [8 x i8] }
%"class.std::vector.7" = type { %"struct.std::_Vector_base.8" }
%"struct.std::_Vector_base.8" = type { %"struct.std::_Vector_base<gmx::Selection, std::allocator<gmx::Selection>>::_Vector_impl" }
%"struct.std::_Vector_base<gmx::Selection, std::allocator<gmx::Selection>>::_Vector_impl" = type { %"struct.std::_Vector_base<gmx::Selection, std::allocator<gmx::Selection>>::_Vector_impl_data" }
%"struct.std::_Vector_base<gmx::Selection, std::allocator<gmx::Selection>>::_Vector_impl_data" = type { ptr, ptr, ptr }
%"class.__gnu_cxx::__normal_iterator.47" = type { ptr }
%"class.__gnu_cxx::__normal_iterator.48" = type { ptr }
%"class.gmx::FlagsTemplate" = type { i64 }
%"class.gmx::SelectionOptionManager" = type { %"class.gmx::IOptionManager", %"class.std::unique_ptr.49" }
%"class.gmx::IOptionManager" = type { ptr }
%"class.std::unique_ptr.49" = type { %"struct.std::__uniq_ptr_data.50" }
%"struct.std::__uniq_ptr_data.50" = type { %"class.std::__uniq_ptr_impl.51" }
%"class.std::__uniq_ptr_impl.51" = type { %"class.std::tuple.52" }
%"class.std::tuple.52" = type { %"struct.std::_Tuple_impl.53" }
%"struct.std::_Tuple_impl.53" = type { %"struct.std::_Head_base.56" }
%"struct.std::_Head_base.56" = type { ptr }
%"class.gmx::SelectionOptionStorage" = type { %"class.gmx::OptionStorageTemplate", %"class.gmx::SelectionOptionInfo", ptr, %"class.std::__cxx11::basic_string", %"class.gmx::FlagsTemplate.38" }
%"class.gmx::OptionStorageTemplate" = type { %"class.gmx::AbstractOptionStorage.base", %"class.std::vector.7", %"class.std::unique_ptr.22", %"class.std::unique_ptr.30" }
%"class.gmx::AbstractOptionStorage.base" = type <{ ptr, %"class.std::__cxx11::basic_string", %"class.std::__cxx11::basic_string", %"class.gmx::FlagsTemplate", ptr, i32, i32, i8, i8 }>
%"class.std::unique_ptr.22" = type { %"struct.std::__uniq_ptr_data.23" }
%"struct.std::__uniq_ptr_data.23" = type { %"class.std::__uniq_ptr_impl.24" }
%"class.std::__uniq_ptr_impl.24" = type { %"class.std::tuple.25" }
%"class.std::tuple.25" = type { %"struct.std::_Tuple_impl.26" }
%"struct.std::_Tuple_impl.26" = type { %"struct.std::_Head_base.29" }
%"struct.std::_Head_base.29" = type { ptr }
%"class.std::unique_ptr.30" = type { %"struct.std::__uniq_ptr_data.31" }
%"struct.std::__uniq_ptr_data.31" = type { %"class.std::__uniq_ptr_impl.32" }
%"class.std::__uniq_ptr_impl.32" = type { %"class.std::tuple.33" }
%"class.std::tuple.33" = type { %"struct.std::_Tuple_impl.34" }
%"struct.std::_Tuple_impl.34" = type { %"struct.std::_Head_base.37" }
%"struct.std::_Head_base.37" = type { ptr }
%"class.gmx::SelectionOptionInfo" = type { %"class.gmx::OptionInfo" }
%"class.gmx::OptionInfo" = type { ptr, ptr }
%"class.gmx::FlagsTemplate.38" = type { i64 }

; Function Attrs: mustprogress nounwind uwtable
define linkonce_odr noundef nonnull align 8 dereferenceable(8) ptr @_ZNSt10_Head_baseILm0EPN3gmx22SelectionOptionManager4ImplELb0EE7_M_headERKS4_(ptr noundef nonnull align 8 dereferenceable(8) %0) #0 comdat align 2 {
  %2 = alloca ptr, align 8
  store ptr %0, ptr %2, align 8
  %3 = load ptr, ptr %2, align 8
  %4 = getelementptr inbounds %"struct.std::_Head_base.56", ptr %3, i32 0, i32 0
  ret ptr %4
}

; Function Attrs: mustprogress nounwind uwtable
define linkonce_odr noundef nonnull align 8 dereferenceable(8) ptr @_ZNSt11_Tuple_implILm0EJPN3gmx22SelectionOptionManager4ImplESt14default_deleteIS2_EEE7_M_headERKS6_(ptr noundef nonnull align 8 dereferenceable(8) %0) #0 comdat align 2 {
  %2 = alloca ptr, align 8
  store ptr %0, ptr %2, align 8
  %3 = load ptr, ptr %2, align 8
  %4 = call noundef nonnull align 8 dereferenceable(8) ptr @_ZNSt10_Head_baseILm0EPN3gmx22SelectionOptionManager4ImplELb0EE7_M_headERKS4_(ptr noundef nonnull align 8 dereferenceable(8) %3) #11
  ret ptr %4
}

; Function Attrs: mustprogress nounwind uwtable
define linkonce_odr noundef nonnull align 8 dereferenceable(8) ptr @_ZSt12__get_helperILm0EPN3gmx22SelectionOptionManager4ImplEJSt14default_deleteIS2_EEERKT0_RKSt11_Tuple_implIXT_EJS6_DpT1_EE(ptr noundef nonnull align 8 dereferenceable(8) %0) #0 comdat {
  %2 = alloca ptr, align 8
  store ptr %0, ptr %2, align 8
  %3 = load ptr, ptr %2, align 8
  %4 = call noundef nonnull align 8 dereferenceable(8) ptr @_ZNSt11_Tuple_implILm0EJPN3gmx22SelectionOptionManager4ImplESt14default_deleteIS2_EEE7_M_headERKS6_(ptr noundef nonnull align 8 dereferenceable(8) %3) #11
  ret ptr %4
}

; Function Attrs: mustprogress nounwind uwtable
define linkonce_odr noundef nonnull align 8 dereferenceable(8) ptr @_ZSt3getILm0EJPN3gmx22SelectionOptionManager4ImplESt14default_deleteIS2_EEERKNSt13tuple_elementIXT_ESt5tupleIJDpT0_EEE4typeERKSA_(ptr noundef nonnull align 8 dereferenceable(8) %0) #0 comdat {
  %2 = alloca ptr, align 8
  store ptr %0, ptr %2, align 8
  %3 = load ptr, ptr %2, align 8
  %4 = call noundef nonnull align 8 dereferenceable(8) ptr @_ZSt12__get_helperILm0EPN3gmx22SelectionOptionManager4ImplEJSt14default_deleteIS2_EEERKT0_RKSt11_Tuple_implIXT_EJS6_DpT1_EE(ptr noundef nonnull align 8 dereferenceable(8) %3) #11
  ret ptr %4
}

; Function Attrs: mustprogress nounwind uwtable
define linkonce_odr noundef ptr @_ZNKSt15__uniq_ptr_implIN3gmx22SelectionOptionManager4ImplESt14default_deleteIS2_EE6_M_ptrEv(ptr noundef nonnull align 8 dereferenceable(8) %0) #0 comdat align 2 {
  %2 = alloca ptr, align 8
  store ptr %0, ptr %2, align 8
  %3 = load ptr, ptr %2, align 8
  %4 = getelementptr inbounds %"class.std::__uniq_ptr_impl.51", ptr %3, i32 0, i32 0
  %5 = call noundef nonnull align 8 dereferenceable(8) ptr @_ZSt3getILm0EJPN3gmx22SelectionOptionManager4ImplESt14default_deleteIS2_EEERKNSt13tuple_elementIXT_ESt5tupleIJDpT0_EEE4typeERKSA_(ptr noundef nonnull align 8 dereferenceable(8) %4) #11
  %6 = load ptr, ptr %5, align 8
  ret ptr %6
}

; Function Attrs: mustprogress nounwind uwtable
define linkonce_odr noundef zeroext i1 @_ZNK3gmx13FlagsTemplateINS_13SelectionFlagEE4testES1_(ptr noundef nonnull align 8 dereferenceable(8) %0, i64 noundef %1) #0 comdat align 2 {
  %3 = alloca ptr, align 8
  %4 = alloca i64, align 8
  store ptr %0, ptr %3, align 8
  store i64 %1, ptr %4, align 8
  %5 = load ptr, ptr %3, align 8
  %6 = getelementptr inbounds %"class.gmx::FlagsTemplate.38", ptr %5, i32 0, i32 0
  %7 = load i64, ptr %6, align 8
  %8 = load i64, ptr %4, align 8
  %9 = and i64 %7, %8
  %10 = icmp ne i64 %9, 0
  ret i1 %10
}

; Function Attrs: mustprogress nounwind uwtable
define linkonce_odr noundef nonnull align 8 dereferenceable(8) ptr @_ZNK9__gnu_cxx17__normal_iteratorIPKPN3gmx22SelectionOptionStorageESt6vectorIS3_SaIS3_EEE4baseEv(ptr noundef nonnull align 8 dereferenceable(8) %0) #0 comdat align 2 {
  %2 = alloca ptr, align 8
  store ptr %0, ptr %2, align 8
  %3 = load ptr, ptr %2, align 8
  %4 = getelementptr inbounds %"class.__gnu_cxx::__normal_iterator.47", ptr %3, i32 0, i32 0
  ret ptr %4
}

; Function Attrs: mustprogress nounwind uwtable
define linkonce_odr noundef nonnull align 8 dereferenceable(8) ptr @_ZNK9__gnu_cxx17__normal_iteratorIPPN3gmx22SelectionOptionStorageESt6vectorIS3_SaIS3_EEE4baseEv(ptr noundef nonnull align 8 dereferenceable(8) %0) #0 comdat align 2 {
  %2 = alloca ptr, align 8
  store ptr %0, ptr %2, align 8
  %3 = load ptr, ptr %2, align 8
  %4 = getelementptr inbounds %"class.__gnu_cxx::__normal_iterator.48", ptr %3, i32 0, i32 0
  ret ptr %4
}

; Function Attrs: mustprogress nounwind uwtable
define linkonce_odr void @_ZN9__gnu_cxx17__normal_iteratorIPPN3gmx22SelectionOptionStorageESt6vectorIS3_SaIS3_EEEC2ERKS4_(ptr noundef nonnull align 8 dereferenceable(8) %0, ptr noundef nonnull align 8 dereferenceable(8) %1) unnamed_addr #0 comdat align 2 {
  %3 = alloca ptr, align 8
  %4 = alloca ptr, align 8
  store ptr %0, ptr %3, align 8
  store ptr %1, ptr %4, align 8
  %5 = load ptr, ptr %3, align 8
  %6 = getelementptr inbounds %"class.__gnu_cxx::__normal_iterator.48", ptr %5, i32 0, i32 0
  %7 = load ptr, ptr %4, align 8
  %8 = load ptr, ptr %7, align 8
  store ptr %8, ptr %6, align 8
  ret void
}

; Function Attrs: mustprogress nounwind uwtable
define linkonce_odr noundef ptr @_ZNKSt10unique_ptrIN3gmx22SelectionOptionManager4ImplESt14default_deleteIS2_EE3getEv(ptr noundef nonnull align 8 dereferenceable(8) %0) #0 comdat align 2 {
  %2 = alloca ptr, align 8
  store ptr %0, ptr %2, align 8
  %3 = load ptr, ptr %2, align 8
  %4 = getelementptr inbounds %"class.std::unique_ptr.49", ptr %3, i32 0, i32 0
  %5 = call noundef ptr @_ZNKSt15__uniq_ptr_implIN3gmx22SelectionOptionManager4ImplESt14default_deleteIS2_EE6_M_ptrEv(ptr noundef nonnull align 8 dereferenceable(8) %4) #11
  ret ptr %5
}

; Function Attrs: mustprogress nounwind uwtable
define linkonce_odr noundef nonnull align 8 dereferenceable(8) ptr @_ZN9__gnu_cxx17__normal_iteratorIPKPN3gmx22SelectionOptionStorageESt6vectorIS3_SaIS3_EEEppEv(ptr noundef nonnull align 8 dereferenceable(8) %0) #0 comdat align 2 {
  %2 = alloca ptr, align 8
  store ptr %0, ptr %2, align 8
  %3 = load ptr, ptr %2, align 8
  %4 = getelementptr inbounds %"class.__gnu_cxx::__normal_iterator.47", ptr %3, i32 0, i32 0
  %5 = load ptr, ptr %4, align 8
  %6 = getelementptr inbounds ptr, ptr %5, i32 1
  store ptr %6, ptr %4, align 8
  ret ptr %3
}

; Function Attrs: mustprogress uwtable
define linkonce_odr noundef zeroext i1 @_ZNK3gmx22SelectionOptionStorage15allowsOnlyAtomsEv(ptr noundef nonnull align 8 dereferenceable(208) %0) #1 comdat align 2 {
  %2 = alloca ptr, align 8
  store ptr %0, ptr %2, align 8
  %3 = load ptr, ptr %2, align 8
  %4 = getelementptr inbounds %"class.gmx::SelectionOptionStorage", ptr %3, i32 0, i32 4
  %5 = call noundef zeroext i1 @_ZNK3gmx13FlagsTemplateINS_13SelectionFlagEE4testES1_(ptr noundef nonnull align 8 dereferenceable(8) %4, i64 noundef 2)
  ret i1 %5
}

; Function Attrs: mustprogress nounwind uwtable
define linkonce_odr noundef nonnull align 8 dereferenceable(8) ptr @_ZNK9__gnu_cxx17__normal_iteratorIPKPN3gmx22SelectionOptionStorageESt6vectorIS3_SaIS3_EEEdeEv(ptr noundef nonnull align 8 dereferenceable(8) %0) #0 comdat align 2 {
  %2 = alloca ptr, align 8
  store ptr %0, ptr %2, align 8
  %3 = load ptr, ptr %2, align 8
  %4 = getelementptr inbounds %"class.__gnu_cxx::__normal_iterator.47", ptr %3, i32 0, i32 0
  %5 = load ptr, ptr %4, align 8
  ret ptr %5
}

; Function Attrs: mustprogress nounwind uwtable
define linkonce_odr noundef zeroext i1 @_ZN9__gnu_cxxneIPKPN3gmx22SelectionOptionStorageEPS3_St6vectorIS3_SaIS3_EEEEbRKNS_17__normal_iteratorIT_T1_EERKNSA_IT0_SC_EE(ptr noundef nonnull align 8 dereferenceable(8) %0, ptr noundef nonnull align 8 dereferenceable(8) %1) #0 comdat {
  %3 = alloca ptr, align 8
  %4 = alloca ptr, align 8
  store ptr %0, ptr %3, align 8
  store ptr %1, ptr %4, align 8
  %5 = load ptr, ptr %3, align 8
  %6 = call noundef nonnull align 8 dereferenceable(8) ptr @_ZNK9__gnu_cxx17__normal_iteratorIPKPN3gmx22SelectionOptionStorageESt6vectorIS3_SaIS3_EEE4baseEv(ptr noundef nonnull align 8 dereferenceable(8) %5) #11
  %7 = load ptr, ptr %6, align 8
  %8 = load ptr, ptr %4, align 8
  %9 = call noundef nonnull align 8 dereferenceable(8) ptr @_ZNK9__gnu_cxx17__normal_iteratorIPPN3gmx22SelectionOptionStorageESt6vectorIS3_SaIS3_EEE4baseEv(ptr noundef nonnull align 8 dereferenceable(8) %8) #11
  %10 = load ptr, ptr %9, align 8
  %11 = icmp ne ptr %7, %10
  ret i1 %11
}

; Function Attrs: mustprogress nounwind uwtable
define linkonce_odr ptr @_ZNSt6vectorIPN3gmx22SelectionOptionStorageESaIS2_EE3endEv(ptr noundef nonnull align 8 dereferenceable(24) %0) #0 comdat align 2 {
  %2 = alloca %"class.__gnu_cxx::__normal_iterator.48", align 8
  %3 = alloca ptr, align 8
  store ptr %0, ptr %3, align 8
  %4 = load ptr, ptr %3, align 8
  %5 = getelementptr inbounds %"struct.std::_Vector_base", ptr %4, i32 0, i32 0
  %6 = getelementptr inbounds %"struct.std::_Vector_base<gmx::SelectionOptionStorage *, std::allocator<gmx::SelectionOptionStorage *>>::_Vector_impl_data", ptr %5, i32 0, i32 1
  call void @_ZN9__gnu_cxx17__normal_iteratorIPPN3gmx22SelectionOptionStorageESt6vectorIS3_SaIS3_EEEC2ERKS4_(ptr noundef nonnull align 8 dereferenceable(8) %2, ptr noundef nonnull align 8 dereferenceable(8) %6) #11
  %7 = getelementptr inbounds %"class.__gnu_cxx::__normal_iterator.48", ptr %2, i32 0, i32 0
  %8 = load ptr, ptr %7, align 8
  ret ptr %8
}

; Function Attrs: mustprogress nounwind uwtable
define linkonce_odr void @_ZN9__gnu_cxx17__normal_iteratorIPKPN3gmx22SelectionOptionStorageESt6vectorIS3_SaIS3_EEEC2IPS3_vEERKNS0_IT_S8_EE(ptr noundef nonnull align 8 dereferenceable(8) %0, ptr noundef nonnull align 8 dereferenceable(8) %1) unnamed_addr #0 comdat align 2 {
  %3 = alloca ptr, align 8
  %4 = alloca ptr, align 8
  store ptr %0, ptr %3, align 8
  store ptr %1, ptr %4, align 8
  %5 = load ptr, ptr %3, align 8
  %6 = getelementptr inbounds %"class.__gnu_cxx::__normal_iterator.47", ptr %5, i32 0, i32 0
  %7 = load ptr, ptr %4, align 8
  %8 = call noundef nonnull align 8 dereferenceable(8) ptr @_ZNK9__gnu_cxx17__normal_iteratorIPPN3gmx22SelectionOptionStorageESt6vectorIS3_SaIS3_EEE4baseEv(ptr noundef nonnull align 8 dereferenceable(8) %7) #11
  %9 = load ptr, ptr %8, align 8
  store ptr %9, ptr %6, align 8
  ret void
}

; Function Attrs: mustprogress nounwind uwtable
define linkonce_odr ptr @_ZNSt6vectorIPN3gmx22SelectionOptionStorageESaIS2_EE5beginEv(ptr noundef nonnull align 8 dereferenceable(24) %0) #0 comdat align 2 {
  %2 = alloca %"class.__gnu_cxx::__normal_iterator.48", align 8
  %3 = alloca ptr, align 8
  store ptr %0, ptr %3, align 8
  %4 = load ptr, ptr %3, align 8
  %5 = getelementptr inbounds %"struct.std::_Vector_base", ptr %4, i32 0, i32 0
  %6 = getelementptr inbounds %"struct.std::_Vector_base<gmx::SelectionOptionStorage *, std::allocator<gmx::SelectionOptionStorage *>>::_Vector_impl_data", ptr %5, i32 0, i32 0
  call void @_ZN9__gnu_cxx17__normal_iteratorIPPN3gmx22SelectionOptionStorageESt6vectorIS3_SaIS3_EEEC2ERKS4_(ptr noundef nonnull align 8 dereferenceable(8) %2, ptr noundef nonnull align 8 dereferenceable(8) %6) #11
  %7 = getelementptr inbounds %"class.__gnu_cxx::__normal_iterator.48", ptr %2, i32 0, i32 0
  %8 = load ptr, ptr %7, align 8
  ret ptr %8
}

; Function Attrs: mustprogress nounwind uwtable
define linkonce_odr noundef ptr @_ZNKSt10unique_ptrIN3gmx22SelectionOptionManager4ImplESt14default_deleteIS2_EEptEv(ptr noundef nonnull align 8 dereferenceable(8) %0) #0 comdat align 2 {
  %2 = alloca ptr, align 8
  store ptr %0, ptr %2, align 8
  %3 = load ptr, ptr %2, align 8
  %4 = call noundef ptr @_ZNKSt10unique_ptrIN3gmx22SelectionOptionManager4ImplESt14default_deleteIS2_EE3getEv(ptr noundef nonnull align 8 dereferenceable(8) %3) #11
  ret ptr %4
}

; Function Attrs: mustprogress nounwind uwtable
define linkonce_odr void @_ZN9__gnu_cxx17__normal_iteratorIPKPN3gmx22SelectionOptionStorageESt6vectorIS3_SaIS3_EEEC2Ev(ptr noundef nonnull align 8 dereferenceable(8) %0) unnamed_addr #0 comdat align 2 {
  %2 = alloca ptr, align 8
  store ptr %0, ptr %2, align 8
  %3 = load ptr, ptr %2, align 8
  %4 = getelementptr inbounds %"class.__gnu_cxx::__normal_iterator.47", ptr %3, i32 0, i32 0
  store ptr null, ptr %4, align 8
  ret void
}

; Function Attrs: mustprogress uwtable
define void @_ZN3gmx22SelectionOptionManager11initOptionsEPNS_17IOptionsContainerE(ptr noundef nonnull align 8 dereferenceable(16) %0, ptr noundef %1) #1 align 2 {
  %3 = alloca ptr, align 8
  %4 = alloca ptr, align 8
  %5 = alloca i8, align 1
  %6 = alloca %"class.__gnu_cxx::__normal_iterator.47", align 8
  %7 = alloca %"class.__gnu_cxx::__normal_iterator.47", align 8
  %8 = alloca %"class.__gnu_cxx::__normal_iterator.48", align 8
  %9 = alloca %"class.__gnu_cxx::__normal_iterator.48", align 8
  %10 = alloca i32, align 4
  store ptr %0, ptr %3, align 8
  store ptr %1, ptr %4, align 8
  %11 = load ptr, ptr %3, align 8
  store i8 1, ptr %5, align 1
  call void @_ZN9__gnu_cxx17__normal_iteratorIPKPN3gmx22SelectionOptionStorageESt6vectorIS3_SaIS3_EEEC2Ev(ptr noundef nonnull align 8 dereferenceable(8) %6) #11
  %12 = getelementptr inbounds %"class.gmx::SelectionOptionManager", ptr %11, i32 0, i32 1
  %13 = call noundef ptr @_ZNKSt10unique_ptrIN3gmx22SelectionOptionManager4ImplESt14default_deleteIS2_EEptEv(ptr noundef nonnull align 8 dereferenceable(8) %12) #11
  %14 = getelementptr inbounds %"class.gmx::SelectionOptionManager::Impl", ptr %13, i32 0, i32 1
  %15 = call ptr @_ZNSt6vectorIPN3gmx22SelectionOptionStorageESaIS2_EE5beginEv(ptr noundef nonnull align 8 dereferenceable(24) %14) #11
  %16 = getelementptr inbounds %"class.__gnu_cxx::__normal_iterator.48", ptr %8, i32 0, i32 0
  store ptr %15, ptr %16, align 8
  call void @_ZN9__gnu_cxx17__normal_iteratorIPKPN3gmx22SelectionOptionStorageESt6vectorIS3_SaIS3_EEEC2IPS3_vEERKNS0_IT_S8_EE(ptr noundef nonnull align 8 dereferenceable(8) %7, ptr noundef nonnull align 8 dereferenceable(8) %8) #11
  call void @llvm.memcpy.p0.p0.i64(ptr align 8 %6, ptr align 8 %7, i64 8, i1 false)
  br label %17

17:                                               ; preds = %30, %2
  %18 = getelementptr inbounds %"class.gmx::SelectionOptionManager", ptr %11, i32 0, i32 1
  %19 = call noundef ptr @_ZNKSt10unique_ptrIN3gmx22SelectionOptionManager4ImplESt14default_deleteIS2_EEptEv(ptr noundef nonnull align 8 dereferenceable(8) %18) #11
  %20 = getelementptr inbounds %"class.gmx::SelectionOptionManager::Impl", ptr %19, i32 0, i32 1
  %21 = call ptr @_ZNSt6vectorIPN3gmx22SelectionOptionStorageESaIS2_EE3endEv(ptr noundef nonnull align 8 dereferenceable(24) %20) #11
  %22 = getelementptr inbounds %"class.__gnu_cxx::__normal_iterator.48", ptr %9, i32 0, i32 0
  store ptr %21, ptr %22, align 8
  %23 = call noundef zeroext i1 @_ZN9__gnu_cxxneIPKPN3gmx22SelectionOptionStorageEPS3_St6vectorIS3_SaIS3_EEEEbRKNS_17__normal_iteratorIT_T1_EERKNSA_IT0_SC_EE(ptr noundef nonnull align 8 dereferenceable(8) %6, ptr noundef nonnull align 8 dereferenceable(8) %9) #11
  br i1 %23, label %24, label %32

24:                                               ; preds = %17
  %25 = call noundef nonnull align 8 dereferenceable(8) ptr @_ZNK9__gnu_cxx17__normal_iteratorIPKPN3gmx22SelectionOptionStorageESt6vectorIS3_SaIS3_EEEdeEv(ptr noundef nonnull align 8 dereferenceable(8) %6) #11
  %26 = load ptr, ptr %25, align 8
  %27 = call noundef zeroext i1 @_ZNK3gmx22SelectionOptionStorage15allowsOnlyAtomsEv(ptr noundef nonnull align 8 dereferenceable(208) %26)
  br i1 %27, label %29, label %28

28:                                               ; preds = %24
  store i8 0, ptr %5, align 1
  br label %29

29:                                               ; preds = %28, %24
  br label %30

30:                                               ; preds = %29
  %31 = call noundef nonnull align 8 dereferenceable(8) ptr @_ZN9__gnu_cxx17__normal_iteratorIPKPN3gmx22SelectionOptionStorageESt6vectorIS3_SaIS3_EEEppEv(ptr noundef nonnull align 8 dereferenceable(8) %6) #11
  br label %17, !llvm.loop !11

32:                                               ; preds = %17
  %33 = load i8, ptr %5, align 1
  %34 = trunc i8 %33 to i1
  %35 = select i1 %34, i32 1, i32 0
  store i32 %35, ptr %10, align 4
  %36 = getelementptr inbounds %"class.gmx::SelectionOptionManager", ptr %11, i32 0, i32 1
  %37 = call noundef ptr @_ZNKSt10unique_ptrIN3gmx22SelectionOptionManager4ImplESt14default_deleteIS2_EEptEv(ptr noundef nonnull align 8 dereferenceable(8) %36) #11
  %38 = getelementptr inbounds %"class.gmx::SelectionOptionManager::Impl", ptr %37, i32 0, i32 0
  %39 = load ptr, ptr %38, align 8
  %40 = load ptr, ptr %4, align 8
  %41 = load i32, ptr %10, align 4
  call void @_ZN3gmx19SelectionCollection11initOptionsEPNS_17IOptionsContainerENS0_19SelectionTypeOptionE(ptr noundef nonnull align 8 dereferenceable(8) %39, ptr noundef %40, i32 noundef %41)
  ret void
}