; Function Attrs: mustprogress uwtable
define void @_ZN3gmx22SelectionOptionManager11initOptionsEPNS_17IOptionsContainerE(ptr nocapture noundef nonnull readonly align 8 dereferenceable(16) %0, ptr noundef %1) local_unnamed_addr #2 align 2 {
  %3 = getelementptr inbounds i8, ptr %0, i64 8
  %4 = load ptr, ptr %3, align 8
  %5 = getelementptr inbounds i8, ptr %4, i64 8
  %6 = load ptr, ptr %5, align 8
  %7 = getelementptr inbounds i8, ptr %4, i64 16
  %8 = load ptr, ptr %7, align 8
  %.not9 = icmp eq ptr %6, %8
  br i1 %.not9, label %._crit_edge, label %.lr.ph

.lr.ph:                                           ; preds = %2, %.lr.ph
  %.011 = phi i8 [ %spec.select, %.lr.ph ], [ 1, %2 ]
  %.sroa.05.010 = phi ptr [ %13, %.lr.ph ], [ %6, %2 ]
  %9 = load ptr, ptr %.sroa.05.010, align 8
  %10 = getelementptr inbounds i8, ptr %9, i64 200
  %11 = load i64, ptr %10, align 8
  %12 = and i64 %11, 2
  %.not8 = icmp eq i64 %12, 0
  %spec.select = select i1 %.not8, i8 0, i8 %.011
  %13 = getelementptr inbounds i8, ptr %.sroa.05.010, i64 8
  %.not = icmp eq ptr %13, %8
  br i1 %.not, label %._crit_edge.loopexit, label %.lr.ph, !llvm.loop !25

._crit_edge.loopexit:                             ; preds = %.lr.ph
  %14 = and i8 %spec.select, 1
  %15 = zext nneg i8 %14 to i32
  br label %._crit_edge

._crit_edge:                                      ; preds = %._crit_edge.loopexit, %2
  %.0.lcssa = phi i32 [ 1, %2 ], [ %15, %._crit_edge.loopexit ]
  %16 = load ptr, ptr %4, align 8
  tail call void @_ZN3gmx19SelectionCollection11initOptionsEPNS_17IOptionsContainerENS0_19SelectionTypeOptionE(ptr noundef nonnull align 8 dereferenceable(8) %16, ptr noundef %1, i32 noundef %.0.lcssa)
  ret void
}